target datalayout = "e-m:e-p270:32:32-p271:32:32-p272:64:64-i64:64-i128:128-f80:128-n8:16:32:64-S128"
target triple = "x86_64-pc-linux-gnu"

%"class.icu_77::CalendarAstronomer" = type <{ double, double, double, double, double, %"class.icu_77::CalendarAstronomer::Equatorial", i8, [7 x i8] }>
%"class.icu_77::CalendarAstronomer::Equatorial" = type { double, double }

; Function Attrs: inlinehint mustprogress uwtable
define linkonce_odr noundef double @_ZN6icu_779ClockMath11floorDivideEdd(double noundef %0, double noundef %1) #3 comdat align 2 {
  %3 = alloca double, align 8
  %4 = alloca double, align 8
  store double %0, ptr %3, align 8, !tbaa !15
  store double %1, ptr %4, align 8, !tbaa !15
  %5 = load double, ptr %3, align 8, !tbaa !15
  %6 = load double, ptr %4, align 8, !tbaa !15
  %7 = fdiv double %5, %6
  %8 = call double @uprv_floor_77(double noundef %7)
  ret double %8
}

; Function Attrs: inlinehint mustprogress uwtable
define internal noundef double @_ZN6icu_77L9normalizeEdd(double noundef %0, double noundef %1) #3 {
  %3 = alloca double, align 8
  %4 = alloca double, align 8
  store double %0, ptr %3, align 8, !tbaa !15
  store double %1, ptr %4, align 8, !tbaa !15
  %5 = load double, ptr %3, align 8, !tbaa !15
  %6 = load double, ptr %4, align 8, !tbaa !15
  %7 = load double, ptr %3, align 8, !tbaa !15
  %8 = load double, ptr %4, align 8, !tbaa !15
  %9 = call noundef double @_ZN6icu_779ClockMath11floorDivideEdd(double noundef %7, double noundef %8)
  %10 = fneg double %6
  %11 = call double @llvm.fmuladd.f64(double %10, double %9, double %5)
  ret double %11
}

; Function Attrs: inlinehint mustprogress uwtable
define internal noundef double @_ZN6icu_77L7norm2PIEd(double noundef %0) #3 {
  %2 = alloca double, align 8
  store double %0, ptr %2, align 8, !tbaa !15
  %3 = load double, ptr %2, align 8, !tbaa !15
  %4 = call noundef double @_ZN6icu_77L9normalizeEdd(double noundef %3, double noundef 0x401921FB54442D18)
  ret double %4
}

; Function Attrs: mustprogress uwtable
define noundef double @_ZN6icu_7718CalendarAstronomer10getMoonAgeEv(ptr noundef nonnull align 8 dereferenceable(57) %0) #0 align 2 {
  %2 = alloca ptr, align 8
  store ptr %0, ptr %2, align 8, !tbaa !3
  %3 = load ptr, ptr %2, align 8
  %4 = call noundef nonnull align 8 dereferenceable(16) ptr @_ZN6icu_7718CalendarAstronomer15getMoonPositionEv(ptr noundef nonnull align 8 dereferenceable(57) %3)
  %5 = getelementptr inbounds nuw %"class.icu_77::CalendarAstronomer", ptr %3, i32 0, i32 4
  %6 = load double, ptr %5, align 8, !tbaa !21
  %7 = getelementptr inbounds nuw %"class.icu_77::CalendarAstronomer", ptr %3, i32 0, i32 2
  %8 = load double, ptr %7, align 8, !tbaa !19
  %9 = fsub double %6, %8
  %10 = call noundef double @_ZN6icu_77L7norm2PIEd(double noundef %9)
  ret double %10
}