; Function Attrs: mustprogress uwtable
define noundef double @_ZN6icu_7718CalendarAstronomer10getMoonAgeEv(ptr noundef nonnull align 8 dereferenceable(57) %0) local_unnamed_addr #0 align 2 {
  %2 = tail call noundef nonnull align 8 dereferenceable(16) ptr @_ZN6icu_7718CalendarAstronomer15getMoonPositionEv(ptr noundef nonnull align 8 dereferenceable(57) %0)
  %3 = getelementptr inbounds nuw i8, ptr %0, i64 32
  %4 = load double, ptr %3, align 8, !tbaa !12
  %5 = getelementptr inbounds nuw i8, ptr %0, i64 16
  %6 = load double, ptr %5, align 8, !tbaa !10
  %7 = fsub double %4, %6
  %8 = fdiv double %7, 0x401921FB54442D18
  %9 = tail call noundef double @uprv_floor_77(double noundef %8)
  %10 = tail call noundef double @llvm.fmuladd.f64(double %9, double 0xC01921FB54442D18, double %7)
  ret double %10
}